target datalayout = "e-m:e-p270:32:32-p271:32:32-p272:64:64-i64:64-i128:128-f80:128-n8:16:32:64-S128"
target triple = "x86_64-pc-linux-gnu"

%struct.BiquadsContext = type { ptr, i32, i32, i32, i32, i32, i32, i32, i32, double, double, double, double, ptr, %struct.AVChannelLayout, i32, i32, [3 x double], [3 x double], [3 x float], [3 x float], [3 x double], [3 x double], [3 x ptr], ptr, [2 x ptr], i32, i64, i32, ptr }
%struct.AVChannelLayout = type { i32, i32, %union.anon.1, ptr }
%union.anon.1 = type { i64 }

; Function Attrs: nounwind uwtable
define internal void @biquad_tdi_s16(ptr noundef %0, ptr noundef %1, ptr noundef %2, i32 noundef %3, ptr noundef %4, ptr noundef %5, i32 noundef %6) #1 {
  %8 = alloca ptr, align 8
  %9 = alloca ptr, align 8
  %10 = alloca ptr, align 8
  %11 = alloca i32, align 4
  %12 = alloca ptr, align 8
  %13 = alloca ptr, align 8
  %14 = alloca i32, align 4
  %15 = alloca ptr, align 8
  %16 = alloca ptr, align 8
  %17 = alloca ptr, align 8
  %18 = alloca ptr, align 8
  %19 = alloca ptr, align 8
  %20 = alloca float, align 4
  %21 = alloca float, align 4
  %22 = alloca float, align 4
  %23 = alloca float, align 4
  %24 = alloca float, align 4
  %25 = alloca float, align 4
  %26 = alloca float, align 4
  %27 = alloca float, align 4
  %28 = alloca float, align 4
  %29 = alloca float, align 4
  %30 = alloca float, align 4
  %31 = alloca float, align 4
  %32 = alloca float, align 4
  %33 = alloca i32, align 4
  %34 = alloca float, align 4
  %35 = alloca float, align 4
  %36 = alloca float, align 4
  %37 = alloca float, align 4
  store ptr %0, ptr %8, align 8, !tbaa !22
  store ptr %1, ptr %9, align 8, !tbaa !36
  store ptr %2, ptr %10, align 8, !tbaa !36
  store i32 %3, ptr %11, align 4, !tbaa !31
  store ptr %4, ptr %12, align 8, !tbaa !36
  store ptr %5, ptr %13, align 8, !tbaa !82
  store i32 %6, ptr %14, align 4, !tbaa !31
  call void @llvm.lifetime.start.p0(i64 8, ptr %15) #11
  %38 = load ptr, ptr %9, align 8, !tbaa !36
  store ptr %38, ptr %15, align 8, !tbaa !83
  call void @llvm.lifetime.start.p0(i64 8, ptr %16) #11
  %39 = load ptr, ptr %10, align 8, !tbaa !36
  store ptr %39, ptr %16, align 8, !tbaa !83
  call void @llvm.lifetime.start.p0(i64 8, ptr %17) #11
  %40 = load ptr, ptr %12, align 8, !tbaa !36
  store ptr %40, ptr %17, align 8, !tbaa !85
  call void @llvm.lifetime.start.p0(i64 8, ptr %18) #11
  %41 = load ptr, ptr %8, align 8, !tbaa !22
  %42 = getelementptr inbounds nuw %struct.BiquadsContext, ptr %41, i32 0, i32 19
  %43 = getelementptr inbounds [3 x float], ptr %42, i64 0, i64 0
  store ptr %43, ptr %18, align 8, !tbaa !85
  call void @llvm.lifetime.start.p0(i64 8, ptr %19) #11
  %44 = load ptr, ptr %8, align 8, !tbaa !22
  %45 = getelementptr inbounds nuw %struct.BiquadsContext, ptr %44, i32 0, i32 20
  %46 = getelementptr inbounds [3 x float], ptr %45, i64 0, i64 0
  store ptr %46, ptr %19, align 8, !tbaa !85
  call void @llvm.lifetime.start.p0(i64 4, ptr %20) #11
  %47 = load ptr, ptr %18, align 8, !tbaa !85
  %48 = getelementptr inbounds float, ptr %47, i64 1
  %49 = load float, ptr %48, align 4, !tbaa !80
  %50 = fneg nsz float %49
  store float %50, ptr %20, align 4, !tbaa !80
  call void @llvm.lifetime.start.p0(i64 4, ptr %21) #11
  %51 = load ptr, ptr %18, align 8, !tbaa !85
  %52 = getelementptr inbounds float, ptr %51, i64 2
  %53 = load float, ptr %52, align 4, !tbaa !80
  %54 = fneg nsz float %53
  store float %54, ptr %21, align 4, !tbaa !80
  call void @llvm.lifetime.start.p0(i64 4, ptr %22) #11
  %55 = load ptr, ptr %19, align 8, !tbaa !85
  %56 = getelementptr inbounds float, ptr %55, i64 0
  %57 = load float, ptr %56, align 4, !tbaa !80
  store float %57, ptr %22, align 4, !tbaa !80
  call void @llvm.lifetime.start.p0(i64 4, ptr %23) #11
  %58 = load ptr, ptr %19, align 8, !tbaa !85
  %59 = getelementptr inbounds float, ptr %58, i64 1
  %60 = load float, ptr %59, align 4, !tbaa !80
  store float %60, ptr %23, align 4, !tbaa !80
  call void @llvm.lifetime.start.p0(i64 4, ptr %24) #11
  %61 = load ptr, ptr %19, align 8, !tbaa !85
  %62 = getelementptr inbounds float, ptr %61, i64 2
  %63 = load float, ptr %62, align 4, !tbaa !80
  store float %63, ptr %24, align 4, !tbaa !80
  call void @llvm.lifetime.start.p0(i64 4, ptr %25) #11
  %64 = load ptr, ptr %17, align 8, !tbaa !85
  %65 = getelementptr inbounds float, ptr %64, i64 0
  %66 = load float, ptr %65, align 4, !tbaa !80
  store float %66, ptr %25, align 4, !tbaa !80
  call void @llvm.lifetime.start.p0(i64 4, ptr %26) #11
  %67 = load ptr, ptr %17, align 8, !tbaa !85
  %68 = getelementptr inbounds float, ptr %67, i64 1
  %69 = load float, ptr %68, align 4, !tbaa !80
  store float %69, ptr %26, align 4, !tbaa !80
  call void @llvm.lifetime.start.p0(i64 4, ptr %27) #11
  %70 = load ptr, ptr %17, align 8, !tbaa !85
  %71 = getelementptr inbounds float, ptr %70, i64 2
  %72 = load float, ptr %71, align 4, !tbaa !80
  store float %72, ptr %27, align 4, !tbaa !80
  call void @llvm.lifetime.start.p0(i64 4, ptr %28) #11
  %73 = load ptr, ptr %17, align 8, !tbaa !85
  %74 = getelementptr inbounds float, ptr %73, i64 3
  %75 = load float, ptr %74, align 4, !tbaa !80
  store float %75, ptr %28, align 4, !tbaa !80
  call void @llvm.lifetime.start.p0(i64 4, ptr %29) #11
  %76 = load ptr, ptr %8, align 8, !tbaa !22
  %77 = getelementptr inbounds nuw %struct.BiquadsContext, ptr %76, i32 0, i32 12
  %78 = load double, ptr %77, align 8, !tbaa !87
  %79 = fptrunc nsz double %78 to float
  store float %79, ptr %29, align 4, !tbaa !80
  call void @llvm.lifetime.start.p0(i64 4, ptr %30) #11
  %80 = load float, ptr %29, align 4, !tbaa !80
  %81 = fpext nsz float %80 to double
  %82 = fsub nsz double 1.000000e+00, %81
  %83 = fptrunc nsz double %82 to float
  store float %83, ptr %30, align 4, !tbaa !80
  call void @llvm.lifetime.start.p0(i64 4, ptr %31) #11
  call void @llvm.lifetime.start.p0(i64 4, ptr %32) #11
  call void @llvm.lifetime.start.p0(i64 4, ptr %33) #11
  store i32 0, ptr %33, align 4, !tbaa !31
  br label %84

84:                                               ; preds = %168, %7
  %85 = load i32, ptr %33, align 4, !tbaa !31
  %86 = load i32, ptr %11, align 4, !tbaa !31
  %87 = icmp slt i32 %85, %86
  br i1 %87, label %89, label %88

88:                                               ; preds = %84
  call void @llvm.lifetime.end.p0(i64 4, ptr %33) #11
  br label %171

89:                                               ; preds = %84
  call void @llvm.lifetime.start.p0(i64 4, ptr %34) #11
  call void @llvm.lifetime.start.p0(i64 4, ptr %35) #11
  call void @llvm.lifetime.start.p0(i64 4, ptr %36) #11
  call void @llvm.lifetime.start.p0(i64 4, ptr %37) #11
  %90 = load ptr, ptr %15, align 8, !tbaa !83
  %91 = load i32, ptr %33, align 4, !tbaa !31
  %92 = sext i32 %91 to i64
  %93 = getelementptr inbounds i16, ptr %90, i64 %92
  %94 = load i16, ptr %93, align 2, !tbaa !88
  %95 = sext i16 %94 to i32
  %96 = sitofp i32 %95 to float
  %97 = load float, ptr %25, align 4, !tbaa !80
  %98 = fadd nsz float %96, %97
  store float %98, ptr %31, align 4, !tbaa !80
  %99 = load float, ptr %31, align 4, !tbaa !80
  %100 = load float, ptr %20, align 4, !tbaa !80
  %101 = load float, ptr %26, align 4, !tbaa !80
  %102 = call nsz float @llvm.fmuladd.f32(float %99, float %100, float %101)
  store float %102, ptr %34, align 4, !tbaa !80
  %103 = load float, ptr %31, align 4, !tbaa !80
  %104 = load float, ptr %21, align 4, !tbaa !80
  %105 = fmul nsz float %103, %104
  store float %105, ptr %35, align 4, !tbaa !80
  %106 = load float, ptr %31, align 4, !tbaa !80
  %107 = load float, ptr %23, align 4, !tbaa !80
  %108 = load float, ptr %28, align 4, !tbaa !80
  %109 = call nsz float @llvm.fmuladd.f32(float %106, float %107, float %108)
  store float %109, ptr %36, align 4, !tbaa !80
  %110 = load float, ptr %31, align 4, !tbaa !80
  %111 = load float, ptr %24, align 4, !tbaa !80
  %112 = fmul nsz float %110, %111
  store float %112, ptr %37, align 4, !tbaa !80
  %113 = load float, ptr %22, align 4, !tbaa !80
  %114 = load float, ptr %31, align 4, !tbaa !80
  %115 = load float, ptr %27, align 4, !tbaa !80
  %116 = call nsz float @llvm.fmuladd.f32(float %113, float %114, float %115)
  store float %116, ptr %32, align 4, !tbaa !80
  %117 = load float, ptr %32, align 4, !tbaa !80
  %118 = load float, ptr %29, align 4, !tbaa !80
  %119 = load float, ptr %31, align 4, !tbaa !80
  %120 = load float, ptr %30, align 4, !tbaa !80
  %121 = fmul nsz float %119, %120
  %122 = call nsz float @llvm.fmuladd.f32(float %117, float %118, float %121)
  store float %122, ptr %32, align 4, !tbaa !80
  %123 = load float, ptr %34, align 4, !tbaa !80
  store float %123, ptr %25, align 4, !tbaa !80
  %124 = load float, ptr %35, align 4, !tbaa !80
  store float %124, ptr %26, align 4, !tbaa !80
  %125 = load float, ptr %36, align 4, !tbaa !80
  store float %125, ptr %27, align 4, !tbaa !80
  %126 = load float, ptr %37, align 4, !tbaa !80
  store float %126, ptr %28, align 4, !tbaa !80
  %127 = load i32, ptr %14, align 4, !tbaa !31
  %128 = icmp ne i32 %127, 0
  br i1 %128, label %129, label %136

129:                                              ; preds = %89
  %130 = load float, ptr %31, align 4, !tbaa !80
  %131 = fptosi float %130 to i16
  %132 = load ptr, ptr %16, align 8, !tbaa !83
  %133 = load i32, ptr %33, align 4, !tbaa !31
  %134 = sext i32 %133 to i64
  %135 = getelementptr inbounds i16, ptr %132, i64 %134
  store i16 %131, ptr %135, align 2, !tbaa !88
  br label %167

136:                                              ; preds = %89
  %137 = load float, ptr %32, align 4, !tbaa !80
  %138 = fcmp nsz olt float %137, -3.276800e+04
  br i1 %138, label %139, label %147

139:                                              ; preds = %136
  %140 = load ptr, ptr %13, align 8, !tbaa !82
  %141 = load i32, ptr %140, align 4, !tbaa !31
  %142 = add nsw i32 %141, 1
  store i32 %142, ptr %140, align 4, !tbaa !31
  %143 = load ptr, ptr %16, align 8, !tbaa !83
  %144 = load i32, ptr %33, align 4, !tbaa !31
  %145 = sext i32 %144 to i64
  %146 = getelementptr inbounds i16, ptr %143, i64 %145
  store i16 -32768, ptr %146, align 2, !tbaa !88
  br label %166

147:                                              ; preds = %136
  %148 = load float, ptr %32, align 4, !tbaa !80
  %149 = fcmp nsz ogt float %148, 3.276700e+04
  br i1 %149, label %150, label %158

150:                                              ; preds = %147
  %151 = load ptr, ptr %13, align 8, !tbaa !82
  %152 = load i32, ptr %151, align 4, !tbaa !31
  %153 = add nsw i32 %152, 1
  store i32 %153, ptr %151, align 4, !tbaa !31
  %154 = load ptr, ptr %16, align 8, !tbaa !83
  %155 = load i32, ptr %33, align 4, !tbaa !31
  %156 = sext i32 %155 to i64
  %157 = getelementptr inbounds i16, ptr %154, i64 %156
  store i16 32767, ptr %157, align 2, !tbaa !88
  br label %165

158:                                              ; preds = %147
  %159 = load float, ptr %32, align 4, !tbaa !80
  %160 = fptosi float %159 to i16
  %161 = load ptr, ptr %16, align 8, !tbaa !83
  %162 = load i32, ptr %33, align 4, !tbaa !31
  %163 = sext i32 %162 to i64
  %164 = getelementptr inbounds i16, ptr %161, i64 %163
  store i16 %160, ptr %164, align 2, !tbaa !88
  br label %165

165:                                              ; preds = %158, %150
  br label %166

166:                                              ; preds = %165, %139
  br label %167

167:                                              ; preds = %166, %129
  call void @llvm.lifetime.end.p0(i64 4, ptr %37) #11
  call void @llvm.lifetime.end.p0(i64 4, ptr %36) #11
  call void @llvm.lifetime.end.p0(i64 4, ptr %35) #11
  call void @llvm.lifetime.end.p0(i64 4, ptr %34) #11
  br label %168

168:                                              ; preds = %167
  %169 = load i32, ptr %33, align 4, !tbaa !31
  %170 = add nsw i32 %169, 1
  store i32 %170, ptr %33, align 4, !tbaa !31
  br label %84, !llvm.loop !99

171:                                              ; preds = %88
  %172 = load float, ptr %25, align 4, !tbaa !80
  %173 = load ptr, ptr %17, align 8, !tbaa !85
  %174 = getelementptr inbounds float, ptr %173, i64 0
  store float %172, ptr %174, align 4, !tbaa !80
  %175 = load float, ptr %26, align 4, !tbaa !80
  %176 = load ptr, ptr %17, align 8, !tbaa !85
  %177 = getelementptr inbounds float, ptr %176, i64 1
  store float %175, ptr %177, align 4, !tbaa !80
  %178 = load float, ptr %27, align 4, !tbaa !80
  %179 = load ptr, ptr %17, align 8, !tbaa !85
  %180 = getelementptr inbounds float, ptr %179, i64 2
  store float %178, ptr %180, align 4, !tbaa !80
  %181 = load float, ptr %28, align 4, !tbaa !80
  %182 = load ptr, ptr %17, align 8, !tbaa !85
  %183 = getelementptr inbounds float, ptr %182, i64 3
  store float %181, ptr %183, align 4, !tbaa !80
  call void @llvm.lifetime.end.p0(i64 4, ptr %32) #11
  call void @llvm.lifetime.end.p0(i64 4, ptr %31) #11
  call void @llvm.lifetime.end.p0(i64 4, ptr %30) #11
  call void @llvm.lifetime.end.p0(i64 4, ptr %29) #11
  call void @llvm.lifetime.end.p0(i64 4, ptr %28) #11
  call void @llvm.lifetime.end.p0(i64 4, ptr %27) #11
  call void @llvm.lifetime.end.p0(i64 4, ptr %26) #11
  call void @llvm.lifetime.end.p0(i64 4, ptr %25) #11
  call void @llvm.lifetime.end.p0(i64 4, ptr %24) #11
  call void @llvm.lifetime.end.p0(i64 4, ptr %23) #11
  call void @llvm.lifetime.end.p0(i64 4, ptr %22) #11
  call void @llvm.lifetime.end.p0(i64 4, ptr %21) #11
  call void @llvm.lifetime.end.p0(i64 4, ptr %20) #11
  call void @llvm.lifetime.end.p0(i64 8, ptr %19) #11
  call void @llvm.lifetime.end.p0(i64 8, ptr %18) #11
  call void @llvm.lifetime.end.p0(i64 8, ptr %17) #11
  call void @llvm.lifetime.end.p0(i64 8, ptr %16) #11
  call void @llvm.lifetime.end.p0(i64 8, ptr %15) #11
  ret void
}