; Function Attrs: nofree norecurse nosync nounwind memory(argmem: readwrite) uwtable
define internal void @biquad_tdi_s16(ptr noundef readonly captures(none) %0, ptr noundef readonly captures(none) %1, ptr noundef writeonly captures(none) %2, i32 noundef %3, ptr noundef captures(none) %4, ptr noundef captures(none) %5, i32 noundef %6) #7 {
  %8 = getelementptr inbounds nuw i8, ptr %0, i64 172
  %9 = getelementptr inbounds nuw i8, ptr %0, i64 164
  %10 = load float, ptr %9, align 4, !tbaa !73
  %11 = fneg nsz float %10
  %12 = getelementptr inbounds nuw i8, ptr %0, i64 168
  %13 = load float, ptr %12, align 4, !tbaa !73
  %14 = fneg nsz float %13
  %15 = load float, ptr %8, align 4, !tbaa !73
  %16 = getelementptr inbounds nuw i8, ptr %0, i64 176
  %17 = load float, ptr %16, align 4, !tbaa !73
  %18 = getelementptr inbounds nuw i8, ptr %0, i64 180
  %19 = load float, ptr %18, align 4, !tbaa !73
  %20 = load float, ptr %4, align 4, !tbaa !73
  %21 = getelementptr inbounds nuw i8, ptr %4, i64 4
  %22 = load float, ptr %21, align 4, !tbaa !73
  %23 = getelementptr inbounds nuw i8, ptr %4, i64 8
  %24 = load float, ptr %23, align 4, !tbaa !73
  %25 = getelementptr inbounds nuw i8, ptr %4, i64 12
  %26 = load float, ptr %25, align 4, !tbaa !73
  %27 = getelementptr inbounds nuw i8, ptr %0, i64 64
  %28 = load double, ptr %27, align 8, !tbaa !75
  %29 = fptrunc nsz double %28 to float
  %30 = fsub nsz float 1.000000e+00, %29
  %31 = icmp sgt i32 %3, 0
  br i1 %31, label %.lr.ph, label %._crit_edge

.lr.ph:                                           ; preds = %7
  %.not = icmp eq i32 %6, 0
  %wide.trip.count92 = zext nneg i32 %3 to i64
  br i1 %.not, label %.lr.ph.split.us, label %.lr.ph.split

.lr.ph.split.us:                                  ; preds = %.lr.ph, %54
  %indvars.iv89 = phi i64 [ %indvars.iv.next90, %54 ], [ 0, %.lr.ph ]
  %.074.us = phi float [ %36, %54 ], [ %20, %.lr.ph ]
  %.06573.us = phi float [ %37, %54 ], [ %22, %.lr.ph ]
  %.06672.us = phi float [ %38, %54 ], [ %24, %.lr.ph ]
  %.06771.us = phi float [ %39, %54 ], [ %26, %.lr.ph ]
  %32 = getelementptr inbounds nuw i16, ptr %1, i64 %indvars.iv89
  %33 = load i16, ptr %32, align 2, !tbaa !76
  %34 = sitofp i16 %33 to float
  %35 = fadd nsz float %.074.us, %34
  %36 = tail call nsz float @llvm.fmuladd.f32(float %35, float %11, float %.06573.us)
  %37 = fmul nsz float %35, %14
  %38 = tail call nsz float @llvm.fmuladd.f32(float %35, float %17, float %.06771.us)
  %39 = fmul nsz float %19, %35
  %40 = tail call nsz float @llvm.fmuladd.f32(float %15, float %35, float %.06672.us)
  %41 = fmul nsz float %30, %35
  %42 = tail call nsz float @llvm.fmuladd.f32(float %40, float %29, float %41)
  %43 = fcmp nsz olt float %42, -3.276800e+04
  br i1 %43, label %51, label %44

44:                                               ; preds = %.lr.ph.split.us
  %45 = fcmp nsz ogt float %42, 3.276700e+04
  br i1 %45, label %48, label %46

46:                                               ; preds = %44
  %47 = fptosi float %42 to i16
  br label %54

48:                                               ; preds = %44
  %49 = load i32, ptr %5, align 4, !tbaa !30
  %50 = add nsw i32 %49, 1
  store i32 %50, ptr %5, align 4, !tbaa !30
  br label %54

51:                                               ; preds = %.lr.ph.split.us
  %52 = load i32, ptr %5, align 4, !tbaa !30
  %53 = add nsw i32 %52, 1
  store i32 %53, ptr %5, align 4, !tbaa !30
  br label %54

54:                                               ; preds = %51, %48, %46
  %.sink = phi i16 [ -32768, %51 ], [ 32767, %48 ], [ %47, %46 ]
  %55 = getelementptr inbounds nuw i16, ptr %2, i64 %indvars.iv89
  store i16 %.sink, ptr %55, align 2, !tbaa !76
  %indvars.iv.next90 = add nuw nsw i64 %indvars.iv89, 1
  %exitcond93.not = icmp eq i64 %indvars.iv.next90, %wide.trip.count92
  br i1 %exitcond93.not, label %._crit_edge, label %.lr.ph.split.us, !llvm.loop !86

._crit_edge.split:                                ; preds = %.lr.ph.split
  %56 = tail call nsz float @llvm.fmuladd.f32(float %60, float %17, float %.06771)
  br label %._crit_edge

._crit_edge:                                      ; preds = %54, %._crit_edge.split, %7
  %.067.lcssa = phi float [ %26, %7 ], [ %63, %._crit_edge.split ], [ %39, %54 ]
  %.066.lcssa = phi float [ %24, %7 ], [ %56, %._crit_edge.split ], [ %38, %54 ]
  %.065.lcssa = phi float [ %22, %7 ], [ %62, %._crit_edge.split ], [ %37, %54 ]
  %.0.lcssa = phi float [ %20, %7 ], [ %61, %._crit_edge.split ], [ %36, %54 ]
  store float %.0.lcssa, ptr %4, align 4, !tbaa !73
  store float %.065.lcssa, ptr %21, align 4, !tbaa !73
  store float %.066.lcssa, ptr %23, align 4, !tbaa !73
  store float %.067.lcssa, ptr %25, align 4, !tbaa !73
  ret void

.lr.ph.split:                                     ; preds = %.lr.ph, %.lr.ph.split
  %indvars.iv = phi i64 [ %indvars.iv.next, %.lr.ph.split ], [ 0, %.lr.ph ]
  %.074 = phi float [ %61, %.lr.ph.split ], [ %20, %.lr.ph ]
  %.06573 = phi float [ %62, %.lr.ph.split ], [ %22, %.lr.ph ]
  %.06771 = phi float [ %63, %.lr.ph.split ], [ %26, %.lr.ph ]
  %57 = getelementptr inbounds nuw i16, ptr %1, i64 %indvars.iv
  %58 = load i16, ptr %57, align 2, !tbaa !76
  %59 = sitofp i16 %58 to float
  %60 = fadd nsz float %.074, %59
  %61 = tail call nsz float @llvm.fmuladd.f32(float %60, float %11, float %.06573)
  %62 = fmul nsz float %60, %14
  %63 = fmul nsz float %19, %60
  %64 = fptosi float %60 to i16
  %65 = getelementptr inbounds nuw i16, ptr %2, i64 %indvars.iv
  store i16 %64, ptr %65, align 2, !tbaa !76
  %indvars.iv.next = add nuw nsw i64 %indvars.iv, 1
  %exitcond.not = icmp eq i64 %indvars.iv.next, %wide.trip.count92
  br i1 %exitcond.not, label %._crit_edge.split, label %.lr.ph.split, !llvm.loop !86
}